target datalayout = "e-m:e-p270:32:32-p271:32:32-p272:64:64-i64:64-i128:128-f80:128-n8:16:32:64-S128"
target triple = "x86_64-pc-linux-gnu"

%struct.find_tcp_conversation_t = type { ptr, ptr }

@rdp_transport_links = internal global ptr null, align 8

; Function Attrs: null_pointer_is_valid sspstrong uwtable
define hidden ptr @rdp_find_tcp_conversation_from_udp(ptr noundef %0) #0 {
  %2 = alloca ptr, align 8
  %3 = alloca %struct.find_tcp_conversation_t, align 8
  store ptr %0, ptr %2, align 8
  call void @llvm.lifetime.start.p0(i64 16, ptr %3) #15
  %4 = getelementptr inbounds nuw %struct.find_tcp_conversation_t, ptr %3, i32 0, i32 0
  %5 = load ptr, ptr %2, align 8
  store ptr %5, ptr %4, align 8
  %6 = getelementptr inbounds nuw %struct.find_tcp_conversation_t, ptr %3, i32 0, i32 1
  store ptr null, ptr %6, align 8
  %7 = load ptr, ptr @rdp_transport_links, align 8
  call void @wmem_map_foreach(ptr noundef %7, ptr noundef @map_find_tcp_conversation_fn, ptr noundef %3)
  %8 = getelementptr inbounds nuw %struct.find_tcp_conversation_t, ptr %3, i32 0, i32 1
  %9 = load ptr, ptr %8, align 8
  call void @llvm.lifetime.end.p0(i64 16, ptr %3) #15
  ret ptr %9
}