; Function Attrs: null_pointer_is_valid sspstrong uwtable
define hidden ptr @rdp_find_tcp_conversation_from_udp(ptr noundef %0) local_unnamed_addr #0 {
  %2 = alloca %struct.find_tcp_conversation_t, align 8
  call void @llvm.lifetime.start.p0(i64 16, ptr nonnull %2) #14
  store ptr %0, ptr %2, align 8
  %3 = getelementptr inbounds nuw i8, ptr %2, i64 8
  store ptr null, ptr %3, align 8
  %4 = load ptr, ptr @rdp_transport_links, align 8
  call void @wmem_map_foreach(ptr noundef %4, ptr noundef nonnull @map_find_tcp_conversation_fn, ptr noundef nonnull %2)
  %5 = load ptr, ptr %3, align 8
  call void @llvm.lifetime.end.p0(i64 16, ptr nonnull %2) #14
  ret ptr %5
}